target datalayout = "e-m:e-p270:32:32-p271:32:32-p272:64:64-i64:64-i128:128-f80:128-n8:16:32:64-S128"
target triple = "x86_64-pc-linux-gnu"

%struct._zend_executor_globals = type { %struct._zval_struct, %struct._zval_struct, [32 x ptr], ptr, ptr, %struct._zend_array, %struct._zend_array, ptr, i32, i32, ptr, ptr, ptr, ptr, ptr, ptr, i64, ptr, ptr, i32, i32, i64, i32, i32, i32, i8, i8, %struct.zend_atomic_bool_s, %struct.zend_atomic_bool_s, ptr, i64, ptr, ptr, %struct._zend_array, %struct._zend_array, i32, i8, %struct._zval_struct, %struct._zval_struct, %struct._zend_stack, %struct._zend_stack, %struct._zend_stack, ptr, i32, i32, i64, ptr, ptr, ptr, %struct._zend_objects_store, ptr, ptr, ptr, [3 x %struct._zend_op], ptr, i8, i8, i64, i32, i32, ptr, [16 x %struct._HashTableIterator], ptr, %union._zend_function, %struct._zend_op, %struct._zend_array, i64, %struct.zend_get_gc_buffer, ptr, ptr, ptr, i64, i8, i32, ptr, ptr, i64, %struct._zend_call_stack, i64, i64, [6 x ptr] }
%struct.zend_atomic_bool_s = type { i8 }
%struct._zval_struct = type { %union._zend_value, %union.anon.9, %union.anon.12 }
%union._zend_value = type { i64 }
%union.anon.9 = type { i32 }
%union.anon.12 = type { i32 }
%struct._zend_stack = type { i32, i32, i32, ptr }
%struct._zend_objects_store = type { ptr, i32, i32, i32 }
%struct._HashTableIterator = type { ptr, i32, i32 }
%union._zend_function = type { %struct._zend_op_array }
%struct._zend_op_array = type { i8, [3 x i8], i32, ptr, ptr, ptr, i32, i32, ptr, ptr, ptr, ptr, i32, i32, i32, i32, ptr, ptr, ptr, ptr, ptr, i32, i32, ptr, ptr, ptr, i32, i32, i32, i32, ptr, ptr, [6 x ptr] }
%struct._zend_op = type { ptr, %union._znode_op, %union._znode_op, %union._znode_op, i32, i32, i8, i8, i8, i8 }
%union._znode_op = type { i32 }
%struct._zend_array = type { %struct._zend_refcounted_h, %union.anon.1, i32, %union.anon.2, i32, i32, i32, i32, i64, ptr }
%struct._zend_refcounted_h = type { i32, %union.anon.0 }
%union.anon.0 = type { i32 }
%union.anon.1 = type { i32 }
%union.anon.2 = type { ptr }
%struct.zend_get_gc_buffer = type { ptr, ptr, ptr }
%struct._zend_call_stack = type { ptr, i64 }
%struct._zend_fcall_info_cache = type { ptr, ptr, ptr, ptr, ptr }
%struct.xml_parser = type { ptr, ptr, %struct._zval_struct, ptr, %struct._zend_fcall_info_cache, %struct._zend_fcall_info_cache, %struct._zend_fcall_info_cache, %struct._zend_fcall_info_cache, %struct._zend_fcall_info_cache, %struct._zend_fcall_info_cache, %struct._zend_fcall_info_cache, %struct._zend_fcall_info_cache, %struct._zend_fcall_info_cache, %struct._zend_fcall_info_cache, %struct._zval_struct, %struct._zval_struct, i32, i32, i32, ptr, ptr, i8, i8, i8, i8, i8, ptr, %struct._zend_object }
%struct._zend_object = type { %struct._zend_refcounted_h, i32, ptr, ptr, ptr, [1 x %struct._zval_struct] }
%struct._zend_execute_data = type { ptr, ptr, ptr, ptr, %struct._zval_struct, ptr, ptr, ptr, ptr }

@xml_parser_ce = internal global ptr null, align 8
@executor_globals = external global %struct._zend_executor_globals, align 8
@.str.40 = private unnamed_addr constant [2 x i8] c"O\00", align 1

; Function Attrs: nounwind uwtable
define internal ptr @xml_parser_from_obj(ptr noundef %0) #0 {
  %2 = alloca ptr, align 8
  store ptr %0, ptr %2, align 8
  %3 = load ptr, ptr %2, align 8
  %4 = getelementptr inbounds i8, ptr %3, i64 -520
  ret ptr %4
}

; Function Attrs: nounwind uwtable
define hidden void @zif_xml_get_error_code(ptr noundef %0, ptr noundef %1) #0 {
  %3 = alloca ptr, align 8
  %4 = alloca ptr, align 8
  %5 = alloca ptr, align 8
  %6 = alloca ptr, align 8
  %7 = alloca ptr, align 8
  store ptr %0, ptr %3, align 8
  store ptr %1, ptr %4, align 8
  %8 = load ptr, ptr %3, align 8
  %9 = getelementptr inbounds %struct._zend_execute_data, ptr %8, i32 0, i32 4
  %10 = getelementptr inbounds %struct._zval_struct, ptr %9, i32 0, i32 2
  %11 = load i32, ptr %10, align 4
  %12 = load ptr, ptr @xml_parser_ce, align 8
  %13 = call i32 (i32, ptr, ...) @zend_parse_parameters(i32 noundef %11, ptr noundef @.str.40, ptr noundef %6, ptr noundef %12)
  %14 = icmp eq i32 %13, -1
  br i1 %14, label %15, label %20

15:                                               ; preds = %2
  br label %16

16:                                               ; preds = %15
  %17 = load ptr, ptr getelementptr inbounds (%struct._zend_executor_globals, ptr @executor_globals, i32 0, i32 50), align 8
  %18 = icmp ne ptr %17, null
  call void @llvm.assume(i1 %18)
  br label %38

19:                                               ; No predecessors!
  br label %20

20:                                               ; preds = %19, %2
  %21 = load ptr, ptr %6, align 8
  %22 = getelementptr inbounds %struct._zval_struct, ptr %21, i32 0, i32 0
  %23 = load ptr, ptr %22, align 8
  %24 = call ptr @xml_parser_from_obj(ptr noundef %23)
  store ptr %24, ptr %5, align 8
  br label %25

25:                                               ; preds = %20
  br label %26

26:                                               ; preds = %25
  %27 = load ptr, ptr %4, align 8
  store ptr %27, ptr %7, align 8
  %28 = load ptr, ptr %5, align 8
  %29 = getelementptr inbounds %struct.xml_parser, ptr %28, i32 0, i32 0
  %30 = load ptr, ptr %29, align 8
  %31 = call i32 @php_XML_GetErrorCode(ptr noundef %30)
  %32 = sext i32 %31 to i64
  %33 = load ptr, ptr %7, align 8
  %34 = getelementptr inbounds %struct._zval_struct, ptr %33, i32 0, i32 0
  store i64 %32, ptr %34, align 8
  %35 = load ptr, ptr %7, align 8
  %36 = getelementptr inbounds %struct._zval_struct, ptr %35, i32 0, i32 1
  store i32 4, ptr %36, align 8
  br label %37

37:                                               ; preds = %26
  br label %38

38:                                               ; preds = %37, %16
  ret void
}